(lp0
S'poi'
p1
aS'from_poi_ratio'
p2
aS'bonus'
p3
aS'exercised_stock_options'
p4
aS'total_stock_value'
p5
aS'salary'
p6
aS'deferred_income'
p7
aS'total_payments'
p8
aS'loan_advances'
p9
aS'restricted_stock'
p10
aS'long_term_incentive'
p11
aS'other'
p12
a.